; ModuleID = '60/832.c'
source_filename = "60/832.c"
target datalayout = "e-m:e-p270:32:32-p271:32:32-p272:64:64-i64:64-f80:128-n8:16:32:64-S128"
target triple = "x86_64-pc-linux-gnu"

@.str = private unnamed_addr constant [3 x i8] c"%d\00", align 1
@.str.1 = private unnamed_addr constant [6 x i8] c"empty\00", align 1
@.str.2 = private unnamed_addr constant [7 x i8] c"%d %d\0A\00", align 1

; Function Attrs: noinline nounwind uwtable
define dso_local i32 @main(i32 %0, i8** %1) #0 {
  %3 = alloca i32, align 4
  %4 = alloca i32, align 4
  %5 = alloca i8**, align 8
  %6 = alloca i32, align 4
  %7 = alloca i32, align 4
  %8 = alloca i32, align 4
  %9 = alloca i32, align 4
  %10 = alloca i32, align 4
  %11 = alloca i32, align 4
  %12 = alloca i32, align 4
  %13 = alloca i32, align 4
  %14 = alloca i32, align 4
  store i32 0, i32* %3, align 4
  store i32 %0, i32* %4, align 4
  store i8** %1, i8*** %5, align 8
  store i32 0, i32* %10, align 4
  store i32 0, i32* %11, align 4
  %15 = call i32 (i8*, ...) @__isoc99_scanf(i8* getelementptr inbounds ([3 x i8], [3 x i8]* @.str, i64 0, i64 0), i32* %6)
  %16 = load i32, i32* %6, align 4
  %17 = icmp slt i32 %16, 3
  br i1 %17, label %18, label %20

18:                                               ; preds = %2
  %19 = call i32 (i8*, ...) @printf(i8* getelementptr inbounds ([6 x i8], [6 x i8]* @.str.1, i64 0, i64 0))
  br label %20

20:                                               ; preds = %18, %2
  store i32 3, i32* %12, align 4
  br label %21

21:                                               ; preds = %74, %20
  %22 = load i32, i32* %12, align 4
  %23 = load i32, i32* %6, align 4
  %24 = icmp sle i32 %22, %23
  br i1 %24, label %25, label %77

25:                                               ; preds = %21
  store i32 0, i32* %7, align 4
  store i32 2, i32* %13, align 4
  br label %26

26:                                               ; preds = %40, %25
  %27 = load i32, i32* %13, align 4
  %28 = load i32, i32* %12, align 4
  %29 = icmp slt i32 %27, %28
  br i1 %29, label %30, label %43

30:                                               ; preds = %26
  %31 = load i32, i32* %12, align 4
  %32 = load i32, i32* %13, align 4
  %33 = srem i32 %31, %32
  store i32 %33, i32* %14, align 4
  %34 = load i32, i32* %14, align 4
  %35 = icmp eq i32 %34, 0
  br i1 %35, label %36, label %39

36:                                               ; preds = %30
  %37 = load i32, i32* %7, align 4
  %38 = add nsw i32 %37, 1
  store i32 %38, i32* %7, align 4
  br label %39

39:                                               ; preds = %36, %30
  br label %40

40:                                               ; preds = %39
  %41 = load i32, i32* %13, align 4
  %42 = add nsw i32 %41, 1
  store i32 %42, i32* %13, align 4
  br label %26

43:                                               ; preds = %26
  %44 = load i32, i32* %7, align 4
  %45 = icmp eq i32 %44, 0
  br i1 %45, label %46, label %63

46:                                               ; preds = %43
  %47 = load i32, i32* %10, align 4
  %48 = icmp ne i32 %47, 0
  br i1 %48, label %49, label %63

49:                                               ; preds = %46
  %50 = load i32, i32* %9, align 4
  store i32 %50, i32* %8, align 4
  %51 = load i32, i32* %12, align 4
  store i32 %51, i32* %9, align 4
  %52 = load i32, i32* %9, align 4
  %53 = load i32, i32* %8, align 4
  %54 = sub nsw i32 %52, %53
  %55 = icmp eq i32 %54, 2
  br i1 %55, label %56, label %62

56:                                               ; preds = %49
  %57 = load i32, i32* %8, align 4
  %58 = load i32, i32* %9, align 4
  %59 = call i32 (i8*, ...) @printf(i8* getelementptr inbounds ([7 x i8], [7 x i8]* @.str.2, i64 0, i64 0), i32 %57, i32 %58)
  %60 = load i32, i32* %11, align 4
  %61 = add nsw i32 %60, 1
  store i32 %61, i32* %11, align 4
  br label %62

62:                                               ; preds = %56, %49
  br label %63

63:                                               ; preds = %62, %46, %43
  %64 = load i32, i32* %7, align 4
  %65 = icmp eq i32 %64, 0
  br i1 %65, label %66, label %73

66:                                               ; preds = %63
  %67 = load i32, i32* %10, align 4
  %68 = icmp eq i32 %67, 0
  br i1 %68, label %69, label %73

69:                                               ; preds = %66
  %70 = load i32, i32* %12, align 4
  store i32 %70, i32* %9, align 4
  %71 = load i32, i32* %10, align 4
  %72 = add nsw i32 %71, 1
  store i32 %72, i32* %10, align 4
  br label %73

73:                                               ; preds = %69, %66, %63
  br label %74

74:                                               ; preds = %73
  %75 = load i32, i32* %12, align 4
  %76 = add nsw i32 %75, 1
  store i32 %76, i32* %12, align 4
  br label %21

77:                                               ; preds = %21
  %78 = load i32, i32* %11, align 4
  %79 = icmp eq i32 %78, 0
  br i1 %79, label %80, label %82

80:                                               ; preds = %77
  %81 = call i32 (i8*, ...) @printf(i8* getelementptr inbounds ([6 x i8], [6 x i8]* @.str.1, i64 0, i64 0))
  br label %82

82:                                               ; preds = %80, %77
  ret i32 0
}

declare dso_local i32 @__isoc99_scanf(i8*, ...) #1

declare dso_local i32 @printf(i8*, ...) #1


!llvm.module.flags = !{!0}
!llvm.ident = !{!1}

!0 = !{i32 1, !"wchar_size", i32 4}
!1 = !{!"clang version 10.0.0-4ubuntu1 "}
